target datalayout = "e-m:e-p270:32:32-p271:32:32-p272:64:64-i64:64-i128:128-f80:128-n8:16:32:64-S128"
target triple = "x86_64-unknown-linux-gnu"

@.str = private unnamed_addr constant [3 x i8] c"OK\00", align 1
@.str.1 = private unnamed_addr constant [14 x i8] c"BAD_SIGNATURE\00", align 1
@.str.2 = private unnamed_addr constant [11 x i8] c"BAD_FORMAT\00", align 1
@.str.3 = private unnamed_addr constant [13 x i8] c"BAD_AUDIENCE\00", align 1
@.str.4 = private unnamed_addr constant [20 x i8] c"KEY_RETRIEVAL_ERROR\00", align 1
@.str.5 = private unnamed_addr constant [24 x i8] c"TIME_CONSTRAINT_FAILURE\00", align 1
@.str.6 = private unnamed_addr constant [14 x i8] c"GENERIC_ERROR\00", align 1
@.str.7 = private unnamed_addr constant [8 x i8] c"UNKNOWN\00", align 1

; Function Attrs: mustprogress nounwind uwtable
define noundef ptr @_Z34grpc_jwt_verifier_status_to_string24grpc_jwt_verifier_status(i32 noundef %status) #4 {
entry:
  %retval = alloca ptr, align 8
  %status.addr = alloca i32, align 4
  store i32 %status, ptr %status.addr, align 4
  %0 = load i32, ptr %status.addr, align 4
  switch i32 %0, label %sw.default [
    i32 0, label %sw.bb
    i32 1, label %sw.bb1
    i32 2, label %sw.bb2
    i32 3, label %sw.bb3
    i32 4, label %sw.bb4
    i32 5, label %sw.bb5
    i32 7, label %sw.bb6
  ]

sw.bb:                                            ; preds = %entry
  store ptr @.str, ptr %retval, align 8
  br label %return

sw.bb1:                                           ; preds = %entry
  store ptr @.str.1, ptr %retval, align 8
  br label %return

sw.bb2:                                           ; preds = %entry
  store ptr @.str.2, ptr %retval, align 8
  br label %return

sw.bb3:                                           ; preds = %entry
  store ptr @.str.3, ptr %retval, align 8
  br label %return

sw.bb4:                                           ; preds = %entry
  store ptr @.str.4, ptr %retval, align 8
  br label %return

sw.bb5:                                           ; preds = %entry
  store ptr @.str.5, ptr %retval, align 8
  br label %return

sw.bb6:                                           ; preds = %entry
  store ptr @.str.6, ptr %retval, align 8
  br label %return

sw.default:                                       ; preds = %entry
  store ptr @.str.7, ptr %retval, align 8
  br label %return

return:                                           ; preds = %sw.default, %sw.bb6, %sw.bb5, %sw.bb4, %sw.bb3, %sw.bb2, %sw.bb1, %sw.bb
  %1 = load ptr, ptr %retval, align 8
  ret ptr %1
}