; Function Attrs: mustprogress nofree norecurse nosync nounwind willreturn memory(none) uwtable
define noundef nonnull ptr @_Z34grpc_jwt_verifier_status_to_string24grpc_jwt_verifier_status(i32 noundef %status) local_unnamed_addr #3 {
entry:
  %0 = icmp ult i32 %status, 8
  br i1 %0, label %switch.lookup, label %return

switch.lookup:                                    ; preds = %entry
  %1 = zext nneg i32 %status to i64
  %switch.gep = getelementptr inbounds [8 x ptr], ptr @switch.table._Z34grpc_jwt_verifier_status_to_string24grpc_jwt_verifier_status, i64 0, i64 %1
  %switch.load = load ptr, ptr %switch.gep, align 8
  br label %return

return:                                           ; preds = %entry, %switch.lookup
  %retval.0 = phi ptr [ %switch.load, %switch.lookup ], [ @.str.7, %entry ]
  ret ptr %retval.0
}